target datalayout = "e-m:e-p270:32:32-p271:32:32-p272:64:64-i64:64-i128:128-f80:128-n8:16:32:64-S128"
target triple = "x86_64-pc-linux-gnu"

%"class.gmx::OptionInfo" = type { ptr, ptr }
%"class.std::vector.19" = type { %"struct.std::_Vector_base.20" }
%"struct.std::_Vector_base.20" = type { %"struct.std::_Vector_base<gmx::Any, std::allocator<gmx::Any>>::_Vector_impl" }
%"struct.std::_Vector_base<gmx::Any, std::allocator<gmx::Any>>::_Vector_impl" = type { %"struct.std::_Vector_base<gmx::Any, std::allocator<gmx::Any>>::_Vector_impl_data" }
%"struct.std::_Vector_base<gmx::Any, std::allocator<gmx::Any>>::_Vector_impl_data" = type { ptr, ptr, ptr }

; Function Attrs: mustprogress nounwind uwtable
define linkonce_odr noundef nonnull align 8 dereferenceable(98) ptr @_ZNK3gmx10OptionInfo6optionEv(ptr noundef nonnull align 8 dereferenceable(16) %0) #1 comdat align 2 {
  %2 = alloca ptr, align 8
  store ptr %0, ptr %2, align 8, !tbaa !64
  %3 = load ptr, ptr %2, align 8
  %4 = getelementptr inbounds nuw %"class.gmx::OptionInfo", ptr %3, i32 0, i32 1
  %5 = load ptr, ptr %4, align 8, !tbaa !66
  ret ptr %5
}

; Function Attrs: mustprogress uwtable
define void @_ZNK3gmx10OptionInfo13defaultValuesEv(ptr dead_on_unwind noalias writable sret(%"class.std::vector.19") align 8 %0, ptr noundef nonnull align 8 dereferenceable(16) %1) #0 align 2 {
  %3 = alloca ptr, align 8
  %4 = alloca ptr, align 8
  store ptr %0, ptr %3, align 8
  store ptr %1, ptr %4, align 8, !tbaa !64
  %5 = load ptr, ptr %4, align 8
  %6 = call noundef nonnull align 8 dereferenceable(98) ptr @_ZNK3gmx10OptionInfo6optionEv(ptr noundef nonnull align 8 dereferenceable(16) %5)
  %7 = load ptr, ptr %6, align 8, !tbaa !10
  %8 = getelementptr inbounds ptr, ptr %7, i64 6
  %9 = load ptr, ptr %8, align 8
  call void %9(ptr dead_on_unwind writable sret(%"class.std::vector.19") align 8 %0, ptr noundef nonnull align 8 dereferenceable(98) %6)
  ret void
}